; Function Attrs: nounwind uwtable
define hidden void @Curl_detach_connection(ptr noundef %0) local_unnamed_addr #0 {
  %2 = getelementptr inbounds nuw i8, ptr %0, i64 24
  %3 = load ptr, ptr %2, align 8, !tbaa !109
  %.not = icmp eq ptr %3, null
  br i1 %.not, label %6, label %4

4:                                                ; preds = %1
  %5 = getelementptr inbounds nuw i8, ptr %0, i64 64
  tail call void @Curl_node_remove(ptr noundef nonnull %5) #19
  br label %6

6:                                                ; preds = %4, %1
  store ptr null, ptr %2, align 8, !tbaa !109
  ret void
}